; Function Attrs: mustprogress nounwind uwtable
define dso_local void @_ZNK4llvm11ms_demangle13ArrayTypeNode9outputPreERNS_16itanium_demangle12OutputBufferENS0_11OutputFlagsE(ptr nocapture noundef nonnull readonly align 8 dereferenceable(32) %0, ptr noundef nonnull align 8 dereferenceable(36) %1, i32 noundef %2) unnamed_addr #0 align 2 {
  %4 = getelementptr inbounds nuw i8, ptr %0, i64 24
  %5 = load ptr, ptr %4, align 8
  %6 = load ptr, ptr %5, align 8
  %7 = getelementptr inbounds i8, ptr %6, i64 24
  %8 = load ptr, ptr %7, align 8
  tail call void %8(ptr noundef nonnull align 8 dereferenceable(13) %5, ptr noundef nonnull align 8 dereferenceable(36) %1, i32 noundef %2) #15
  %9 = getelementptr inbounds nuw i8, ptr %0, i64 12
  %10 = load i8, ptr %9, align 4
  %11 = icmp eq i8 %10, 0
  br i1 %11, label %_ZL16outputQualifiersRN4llvm16itanium_demangle12OutputBufferENS_11ms_demangle10QualifiersEbb.exit, label %12

12:                                               ; preds = %3
  %13 = tail call fastcc noundef zeroext i1 @_ZL24outputQualifierIfPresentRN4llvm16itanium_demangle12OutputBufferENS_11ms_demangle10QualifiersES4_b(ptr noundef nonnull align 8 dereferenceable(36) %1, i8 noundef zeroext %10, i8 noundef zeroext 1, i1 noundef zeroext true)
  %14 = tail call fastcc noundef zeroext i1 @_ZL24outputQualifierIfPresentRN4llvm16itanium_demangle12OutputBufferENS_11ms_demangle10QualifiersES4_b(ptr noundef nonnull align 8 dereferenceable(36) %1, i8 noundef zeroext %10, i8 noundef zeroext 2, i1 noundef zeroext %13)
  %15 = tail call fastcc noundef zeroext i1 @_ZL24outputQualifierIfPresentRN4llvm16itanium_demangle12OutputBufferENS_11ms_demangle10QualifiersES4_b(ptr noundef nonnull align 8 dereferenceable(36) %1, i8 noundef zeroext %10, i8 noundef zeroext 32, i1 noundef zeroext %14)
  br label %_ZL16outputQualifiersRN4llvm16itanium_demangle12OutputBufferENS_11ms_demangle10QualifiersEbb.exit

_ZL16outputQualifiersRN4llvm16itanium_demangle12OutputBufferENS_11ms_demangle10QualifiersEbb.exit: ; preds = %3, %12
  ret void
}